(lp0
S'1999ESAA-46'
p1
aS'2003IECC-43'
p2
aS'AEA1946-35'
p3
aS'AA1949-24'
p4
aS'ACA1978-31'
p5
aS'AMA-26'
p6
aS'ATSSSA-54'
p7
aS'AIPTEA1994-59'
p8
aS'AADA-34'
p9
aS'AADA1970-42'
p10
aS'AAEA2010-40'
p11
aS'AAIA1982-42'
p12
aS'AARA1970-38'
p13
aS'AASCEA1987-60'
p14
aS'AASCNIITA1992-97'
p15
aS'AATFTRA1997-59'
p16
aS'ANCSA-35'
p17
aS'AJCA2004-34'
p18
aS'ARRA2009-46'
p19
aS'ARRTA2009-50'
p20
aS'AECA-23'
p21
aS'AECA1955-35'
p22
aS'ASCEA1990-50'
p23
aS'ASNAA1979-47'
p24
aS'BBA1997-27'
p25
aS'BBEDCA-49'
p26
aS'BBEDCA1985-57'
p27
aS'BHCA1956-32'
p28
aS'BHCTA1976-36'
p29
aS'BA-14'
p30
aS'BTA1980-26'
p31
aS'BEGSFDA-45'
p32
aS'BLBA-23'
p33
aS'BLBRA1977-39'
p34
aS'BLBRA1981-39'
p35
aS'BAPA1950-44'
p36
aS'CCA1949-31'
p37
aS'CBERA-37'
p38
aS'CIAA1949-39'
p39
aS'CIARA-42'
p40
aS'CIARA1964-50'
p41
aS'CHIPRA2009-63'
p42
aS'CRA1964-24'
p43
aS'CRA1991-24'
p44
aS'CSRA-28'
p45
aS'CRA2010-29'
p46
aS'CA-11'
p47
aS'CAA-13'
p48
aS'CWA-15'
p49
aS'CWPPRA-57'
p50
aS'CEA-22'
p51
aS'CFMA2000-43'
p52
aS'CSA1962-36'
p53
aS'CDBFIA1994-68'
p54
aS'CRTRA2000-40'
p55
aS'CERCLA1980-77'
p56
aS'COPLCA-58'
p57
aS'CAA1995-40'
p58
aS'CFRDA-43'
p59
aS'COBRA1985-54'
p60
aS'CEA2010-32'
p61
aS'CSA-25'
p62
aS'CFAA1978-43'
p63
aS'CETSA2009-41'
p64
aS'CSBJA2010-40'
p65
aS'COWPTA1980-41'
p66
aS'DPA1974-26'
p67
aS'DPA1950-30'
p68
aS'DRA1984-29'
p69
aS'DRA2005-29'
p70
aS'DCMDA1966-61'
p71
aS'DAA1988-31'
p72
aS'DRA1970-27'
p73
aS'EGTRRA2001-57'
p74
aS'ERTA1981-33'
p75
aS'ESA2008-29'
p76
aS'ETA1981-24'
p77
aS'EFTA-28'
p78
aS'ESEA1965-46'
p79
aS'ECA1974-34'
p80
aS'EESA2008-44'
p81
aS'EISLA1969-42'
p82
aS'EJUAA1974-54'
p83
aS'EUCA1974-47'
p84
aS'EUCA1991-47'
p85
aS'ERISA1974-48'
p86
aS'ERISA1974-47'
p87
aS'ERSA1974-40'
p88
aS'ESA1960-31'
p89
aS'EIEA2008-44'
p90
aS'EPA1992-25'
p91
aS'EPA2005-25'
p92
aS'ETA1978-22'
p93
aS'ETIA2005-33'
p94
aS'ETRA1965-32'
p95
aS'ETTCA1958-40'
p96
aS'EAA1969-33'
p97
aS'EAA1979-33'
p98
aS'FCRA-25'
p99
aS'FDCPA-34'
p100
aS'FHA-16'
p101
aS'FLSA1938-32'
p102
aS'FSA1988-26'
p103
aS'FMLA1993-36'
p104
aS'FCA1959-23'
p105
aS'FAAA-34'
p106
aS'FCCA1966-37'
p107
aS'FCUA-24'
p108
aS'FCIA-26'
p109
aS'FDIA-29'
p110
aS'FECA1971-37'
p111
aS'FFDCA-36'
p112
aS'FHLBA-26'
p113
aS'FIFRA-51'
p114
aS'FMSHA1977-42'
p115
aS'FNMACA-49'
p116
aS'FPA-17'
p117
aS'FRESA1995-50'
p118
aS'FRA-19'
p119
aS'FSA1967-26'
p120
aS'FSCA1982-45'
p121
aS'FTCA-28'
p122
aS'FTA-19'
p123
aS'FUTA-28'
p124
aS'FWPCA-35'
p125
aS'FIRREA1989-68'
p126
aS'FSA1985-25'
p127
aS'FSA1977-22'
p128
aS'FNA2008-30'
p129
aS'FCEA2008-42'
p130
aS'FEIA1978-33'
p131
aS'FRAA-35'
p132
aS'FSA1946-27'
p133
aS'FSA1980-27'
p134
aS'GOZA2005-33'
p135
aS'HMRA1986-38'
p136
aS'HSRA1980-40'
p137
aS'HSRRA1980-48'
p138
aS'HSRRA1980-49'
p139
aS'HCPAA1996-54'
p140
aS'HIPAA1996-59'
p141
aS'HDTRA2008-41'
p142
aS'HEARTA2008-53'
p143
aS'HEA1965-28'
p144
aS'HRA1956-27'
p145
aS'HRA1982-27'
p146
aS'HSA2002-29'
p147
aS'HPA1998-33'
p148
aS'HA-11'
p149
aS'HA1949-19'
p150
aS'HATA2008-34'
p151
aS'HCDA1974-45'
p152
aS'HUDA1965-41'
p153
aS'HUDA1968-41'
p154
aS'INA-31'
p155
aS'ICWA1978-32'
p156
aS'IFA1974-28'
p157
aS'IGRA-28'
p158
aS'IHCIA-34'
p159
aS'IRA-21'
p160
aS'IWRA1978-36'
p161
aS'IGA1978-29'
p162
aS'ISTEA1991-56'
p163
aS'IRA1939-28'
p164
aS'IRA1942-28'
p165
aS'IRA1954-28'
p166
aS'IRC-21'
p167
aS'IRC1939-29'
p168
aS'IRC1954-29'
p169
aS'IRC1986-29'
p170
aS'IRSRRA1998-61'
p171
aS'ISA1950-29'
p172
aS'IEEPA-43'
p173
aS'IOIA-42'
p174
aS'ISAAECA1976-69'
p175
aS'ICA-23'
p176
aS'IAA1940-31'
p177
aS'ICA1940-30'
p178
aS'IC-9'
p179
aS'JCWAA2002-46'
p180
aS'JTPA-28'
p181
aS'JGTRRA2003-53'
p182
aS'JGTRRA2003-57'
p183
aS'LMRA-30'
p184
aS'LWCFA1965-44'
p185
aS'LSTA-35'
p186
aS'LITA1984-30'
p187
aS'MPDIMA2003-70'
p188
aS'MMA-19'
p189
aS'MMA1936-27'
p190
aS'MSSA1946-31'
p191
aS'MRAA1962-44'
p192
aS'MRA1982-33'
p193
aS'MFDRA2007-44'
p194
aS'MSBTA1980-37'
p195
aS'MVICSA-46'
p196
aS'MPPAA1980-49'
p197
aS'MSA1954-27'
p198
aS'NDAA-34'
p199
aS'NFA-21'
p200
aS'NFA1968-29'
p201
aS'NHA-20'
p202
aS'NGPA1978-30'
p203
aS'OPA1990-25'
p204
aS'OBRA1986-41'
p205
aS'OBRA1987-41'
p206
aS'OBRA1989-41'
p207
aS'OBRA1990-41'
p208
aS'OBRA1993-41'
p209
aS'OCESAA-66'
p210
aS'OCCSSA1968-50'
p211
aS'ORA1980-34'
p212
aS'OA-11'
p213
aS'OCSLA-33'
p214
aS'ODAA-41'
p215
aS'PPACA-42'
p216
aS'PPACA2009-50'
p217
aS'PCA-15'
p218
aS'PPA-22'
p219
aS'PPA2006-30'
p220
aS'PRWORA1996-71'
p221
aS'PECFA1966-47'
p222
aS'PHSA-25'
p223
aS'PHSA-26'
p224
aS'PUHCA-34'
p225
aS'PURPA1978-46'
p226
aS'PURPA1978-44'
p227
aS'RPSA1970-34'
p228
aS'RRA-23'
p229
aS'RRA1937-31'
p230
aS'RRA1974-31'
p231
aS'RUIA-35'
p232
aS'RLA-17'
p233
aS'RRA1982-30'
p234
aS'RBFA-29'
p235
aS'RA-10'
p236
aS'RA1973-26'
p237
aS'REA1984-29'
p238
aS'RPA1994-33'
p239
aS'RA1918-19'
p240
aS'RA1926-19'
p241
aS'RA1928-19'
p242
aS'RA1932-19'
p243
aS'RA1934-19'
p244
aS'RA1962-19'
p245
aS'RA1964-19'
p246
aS'RA1971-19'
p247
aS'RA1978-19'
p248
aS'RA1987-19'
p249
aS'RAA1975-30'
p250
aS'RRA1987-34'
p251
aS'RRA1989-34'
p252
aS'RRA1990-34'
p253
aS'RRA1993-34'
p254
aS'RECA1968-43'
p255
aS'ROA-19'
p256
aS'RCDRIA1994-67'
p257
aS'RHA-22'
p258
aS'REA1936-33'
p259
aS'SAFETEA-64'
p260
aS'SLBA-23'
p261
aS'SA1933-22'
p262
aS'SEA1934-31'
p263
aS'SEA1934-35'
p264
aS'SCRA-31'
p265
aS'SBA-18'
p266
aS'SBIA1958-37'
p267
aS'SBJPA1996-41'
p268
aS'SSA-19'
p269
aS'SCDAA-44'
p270
aS'SCDPA-41'
p271
aS'SWDA-24'
p272
aS'SRBSAA2005-67'
p273
aS'SDBAA1956-46'
p274
aS'SISA-30'
p275
aS'SA-14'
p276
aS'SARA1986-52'
p277
aS'SRA1986-29'
p278
aS'SAA-31'
p279
aS'SMCRA1977-50'
p280
aS'STAA1982-45'
p281
aS'STEA2010-44'
p282
aS'STURAA1987-68'
p283
aS'TA-10'
p284
aS'TA1930-18'
p285
aS'TEFRA1982-48'
p286
aS'TEAMTRA2008-60'
p287
aS'TIPRA2005-54'
p288
aS'TRA1975-25'
p289
aS'TRA1976-25'
p290
aS'TRSA1977-44'
p291
aS'TRA1969-22'
p292
aS'TRA1976-22'
p293
aS'TRA1984-22'
p294
aS'TRA1986-22'
p295
aS'TREA1999-32'
p296
aS'TRHCA2006-38'
p297
aS'TRUIRJCA2010-80'
p298
aS'TTREA1998-42'
p299
aS'TRA1997-27'
p300
aS'TAA1958-32'
p301
aS'TCA1982-33'
p302
aS'TCA1984-33'
p303
aS'TMRA1988-47'
p304
aS'TEUCA2002-56'
p305
aS'TEA2010-31'
p306
aS'TUCA1958-47'
p307
aS'TIC-20'
p308
aS'TA1974-17'
p309
aS'TA2002-17'
p310
aS'TEA1962-27'
p311
aS'TDA2000-33'
p312
aS'TEA-25'
p313
aS'TAA-27'
p314
aS'TPSGGAA-67'
p315
aS'UCEA2008-47'
p316
aS'UCEA2010-47'
p317
aS'UNPA1945-40'
p318
aS'USC-18'
p319
aS'USHA1937-33'
p320
aS'UMTA1964-37'
p321
aS'URAA-28'
p322
aS'VSMA-30'
p323
aS'VIC-19'
p324
aS'WRDA1986-39'
p325
aS'WRDA1996-39'
p326
aS'WSFRPIA2000-68'
p327
aS'WHBAA2009-58'
p328
aS'WRERA2008-50'
p329
aS'WIA1998-32'
p330
aS'WFTRA2004-39'
p331
a.